target datalayout = "e-m:e-p270:32:32-p271:32:32-p272:64:64-i64:64-i128:128-f80:128-n8:16:32:64-S128"
target triple = "x86_64-unknown-linux-gnu"

%"struct.msdfgen::Vector2" = type { double, double }
%"class.msdfgen::MSDFErrorCorrection" = type { %"struct.msdfgen::BitmapRef", %"class.msdfgen::Projection", double, double, double }
%"struct.msdfgen::BitmapRef" = type { ptr, i32, i32 }
%"class.msdfgen::Projection" = type { %"struct.msdfgen::Vector2", %"struct.msdfgen::Vector2" }
%"struct.msdfgen::BitmapConstRef.28" = type { ptr, i32, i32 }

; Function Attrs: mustprogress nounwind uwtable
define linkonce_odr dso_local void @_ZN7msdfgen14BitmapConstRefIhLi1EEC2ERKNS_9BitmapRefIhLi1EEE(ptr noundef nonnull align 8 dereferenceable(16) %this, ptr noundef nonnull align 8 dereferenceable(16) %orig) unnamed_addr #2 comdat align 2 {
entry:
  %this.addr = alloca ptr, align 8
  %orig.addr = alloca ptr, align 8
  store ptr %this, ptr %this.addr, align 8
  store ptr %orig, ptr %orig.addr, align 8
  %this1 = load ptr, ptr %this.addr, align 8
  %pixels = getelementptr inbounds %"struct.msdfgen::BitmapConstRef.28", ptr %this1, i32 0, i32 0
  %0 = load ptr, ptr %orig.addr, align 8
  %pixels2 = getelementptr inbounds %"struct.msdfgen::BitmapRef", ptr %0, i32 0, i32 0
  %1 = load ptr, ptr %pixels2, align 8
  store ptr %1, ptr %pixels, align 8
  %width = getelementptr inbounds %"struct.msdfgen::BitmapConstRef.28", ptr %this1, i32 0, i32 1
  %2 = load ptr, ptr %orig.addr, align 8
  %width3 = getelementptr inbounds %"struct.msdfgen::BitmapRef", ptr %2, i32 0, i32 1
  %3 = load i32, ptr %width3, align 8
  store i32 %3, ptr %width, align 8
  %height = getelementptr inbounds %"struct.msdfgen::BitmapConstRef.28", ptr %this1, i32 0, i32 2
  %4 = load ptr, ptr %orig.addr, align 8
  %height4 = getelementptr inbounds %"struct.msdfgen::BitmapRef", ptr %4, i32 0, i32 2
  %5 = load i32, ptr %height4, align 4
  store i32 %5, ptr %height, align 4
  ret void
}

; Function Attrs: mustprogress uwtable
define dso_local { ptr, i64 } @_ZNK7msdfgen19MSDFErrorCorrection10getStencilEv(ptr noundef nonnull align 8 dereferenceable(72) %this) #0 align 2 {
entry:
  %retval = alloca %"struct.msdfgen::BitmapConstRef.28", align 8
  %this.addr = alloca ptr, align 8
  store ptr %this, ptr %this.addr, align 8
  %this1 = load ptr, ptr %this.addr, align 8
  %stencil = getelementptr inbounds %"class.msdfgen::MSDFErrorCorrection", ptr %this1, i32 0, i32 0
  call void @_ZN7msdfgen14BitmapConstRefIhLi1EEC2ERKNS_9BitmapRefIhLi1EEE(ptr noundef nonnull align 8 dereferenceable(16) %retval, ptr noundef nonnull align 8 dereferenceable(16) %stencil)
  %0 = load { ptr, i64 }, ptr %retval, align 8
  ret { ptr, i64 } %0
}