; Function Attrs: mustprogress nofree norecurse nosync nounwind willreturn memory(argmem: read) uwtable
define dso_local { ptr, i64 } @_ZNK7msdfgen19MSDFErrorCorrection10getStencilEv(ptr noundef nonnull readonly align 8 captures(none) dereferenceable(72) %this) local_unnamed_addr #3 align 2 {
entry:
  %0 = load ptr, ptr %this, align 8
  %width3.i = getelementptr inbounds nuw i8, ptr %this, i64 8
  %1 = load i64, ptr %width3.i, align 8
  %.fca.0.insert = insertvalue { ptr, i64 } poison, ptr %0, 0
  %.fca.1.insert = insertvalue { ptr, i64 } %.fca.0.insert, i64 %1, 1
  ret { ptr, i64 } %.fca.1.insert
}